; Function Attrs: nounwind uwtable
define hidden i32 @_ir_CALL_N(ptr nocapture noundef %0, i32 noundef %1, i32 noundef %2, i32 noundef %3, ptr nocapture noundef readonly %4) local_unnamed_addr #0 {
  %6 = shl i32 %1, 8
  %7 = and i32 %6, 16776960
  %8 = add i32 %3, 2
  %9 = getelementptr inbounds i8, ptr %0, i64 8
  %10 = load i32, ptr %9, align 8
  %11 = sdiv i32 %8, 4
  %12 = add i32 %10, %11
  %13 = getelementptr inbounds i8, ptr %0, i64 12
  %14 = load i32, ptr %13, align 4
  %.not22.i = icmp slt i32 %12, %14
  %.pre30.i = load ptr, ptr %0, align 8
  br i1 %.not22.i, label %._crit_edge.i, label %.lr.ph.i

.lr.ph.i:                                         ; preds = %5
  %15 = getelementptr inbounds i8, ptr %0, i64 20
  %.pre29.i = load i32, ptr %15, align 4
  br label %16

16:                                               ; preds = %16, %.lr.ph.i
  %17 = phi i32 [ %.pre29.i, %.lr.ph.i ], [ %31, %16 ]
  %18 = phi ptr [ %.pre30.i, %.lr.ph.i ], [ %33, %16 ]
  %19 = phi i32 [ %14, %.lr.ph.i ], [ %34, %16 ]
  %20 = icmp slt i32 %19, 4096
  %21 = shl nsw i32 %19, 1
  %22 = icmp ult i32 %19, 8192
  %23 = add nuw nsw i32 %19, 4096
  %spec.select.i.i = select i1 %22, i32 8192, i32 %23
  %.sink.i.i = select i1 %20, i32 %21, i32 %spec.select.i.i
  store i32 %.sink.i.i, ptr %13, align 4
  %24 = sext i32 %17 to i64
  %25 = sub nsw i64 0, %24
  %26 = getelementptr inbounds %struct._ir_insn, ptr %18, i64 %25
  %27 = add nsw i32 %.sink.i.i, %17
  %28 = sext i32 %27 to i64
  %29 = shl nsw i64 %28, 4
  %30 = tail call ptr @_erealloc(ptr noundef %26, i64 noundef %29) #24
  %31 = load i32, ptr %15, align 4
  %32 = sext i32 %31 to i64
  %33 = getelementptr inbounds %struct._ir_insn, ptr %30, i64 %32
  store ptr %33, ptr %0, align 8
  %34 = load i32, ptr %13, align 4
  %.not.i = icmp slt i32 %12, %34
  br i1 %.not.i, label %._crit_edge.i, label %16

._crit_edge.i:                                    ; preds = %16, %5
  %35 = phi ptr [ %.pre30.i, %5 ], [ %33, %16 ]
  %36 = add nsw i32 %12, 1
  store i32 %36, ptr %9, align 8
  %37 = sext i32 %10 to i64
  %38 = getelementptr inbounds %struct._ir_insn, ptr %35, i64 %37
  %39 = shl i32 %8, 16
  %40 = or i32 %7, %39
  %41 = or disjoint i32 %40, 69
  store i32 %41, ptr %38, align 8
  %.not2123.i = icmp slt i32 %8, 0
  br i1 %.not2123.i, label %ir_emit_N.exit, label %.lr.ph27.preheader.i

.lr.ph27.preheader.i:                             ; preds = %._crit_edge.i
  %42 = or i32 %8, 3
  %43 = shl nsw i64 %37, 4
  %44 = or disjoint i64 %43, 4
  %scevgep.i = getelementptr i8, ptr %35, i64 %44
  %45 = zext nneg i32 %42 to i64
  %46 = shl nuw nsw i64 %45, 2
  tail call void @llvm.memset.p0.i64(ptr noundef nonnull align 4 dereferenceable(1) %scevgep.i, i8 0, i64 %46, i1 false)
  br label %ir_emit_N.exit

ir_emit_N.exit:                                   ; preds = %._crit_edge.i, %.lr.ph27.preheader.i
  %47 = getelementptr inbounds i8, ptr %0, i64 248
  %48 = load i32, ptr %47, align 8
  %49 = load ptr, ptr %0, align 8
  %50 = getelementptr inbounds %struct._ir_insn, ptr %49, i64 %37, i32 0, i32 1
  store i32 %48, ptr %50, align 4
  %51 = load ptr, ptr %0, align 8
  %52 = getelementptr inbounds %struct._ir_insn, ptr %51, i64 %37, i32 1
  store i32 %2, ptr %52, align 4
  %.not = icmp eq i32 %3, 0
  br i1 %.not, label %._crit_edge, label %.lr.ph

.lr.ph:                                           ; preds = %ir_emit_N.exit, %.lr.ph
  %.019 = phi i32 [ %61, %.lr.ph ], [ 0, %ir_emit_N.exit ]
  %53 = add i32 %.019, 3
  %54 = zext i32 %.019 to i64
  %55 = getelementptr inbounds i32, ptr %4, i64 %54
  %56 = load i32, ptr %55, align 4
  %57 = load ptr, ptr %0, align 8
  %58 = getelementptr inbounds %struct._ir_insn, ptr %57, i64 %37
  %59 = sext i32 %53 to i64
  %60 = getelementptr inbounds i32, ptr %58, i64 %59
  store i32 %56, ptr %60, align 4
  %61 = add nuw i32 %.019, 1
  %exitcond.not = icmp eq i32 %61, %3
  br i1 %exitcond.not, label %._crit_edge, label %.lr.ph

._crit_edge:                                      ; preds = %.lr.ph, %ir_emit_N.exit
  store i32 %10, ptr %47, align 8
  ret i32 %10
}